target datalayout = "e-m:e-p270:32:32-p271:32:32-p272:64:64-i64:64-i128:128-f80:128-n8:16:32:64-S128"
target triple = "x86_64-pc-linux-gnu"

%struct.Gia_MmFixed_t_ = type { i32, i32, i32, i32, ptr, i32, i32, i32, ptr, i32, i32 }
%struct.Gia_MmStep_t_ = type { i32, ptr, i32, ptr, i32, i32, ptr }

; Function Attrs: nounwind uwtable
define ptr @Gia_MmFixedStart(i32 noundef %0, i32 noundef %1) #0 {
  %3 = alloca i32, align 4
  %4 = alloca i32, align 4
  %5 = alloca ptr, align 8
  store i32 %0, ptr %3, align 4, !tbaa !3
  store i32 %1, ptr %4, align 4, !tbaa !3
  call void @llvm.lifetime.start.p0(i64 8, ptr %5) #7
  %6 = call noalias ptr @malloc(i64 noundef 56) #8
  store ptr %6, ptr %5, align 8, !tbaa !7
  %7 = load ptr, ptr %5, align 8, !tbaa !7
  call void @llvm.memset.p0.i64(ptr align 8 %7, i8 0, i64 56, i1 false)
  %8 = load i32, ptr %3, align 4, !tbaa !3
  %9 = load ptr, ptr %5, align 8, !tbaa !7
  %10 = getelementptr inbounds nuw %struct.Gia_MmFixed_t_, ptr %9, i32 0, i32 0
  store i32 %8, ptr %10, align 8, !tbaa !10
  %11 = load ptr, ptr %5, align 8, !tbaa !7
  %12 = getelementptr inbounds nuw %struct.Gia_MmFixed_t_, ptr %11, i32 0, i32 1
  store i32 0, ptr %12, align 4, !tbaa !14
  %13 = load ptr, ptr %5, align 8, !tbaa !7
  %14 = getelementptr inbounds nuw %struct.Gia_MmFixed_t_, ptr %13, i32 0, i32 2
  store i32 0, ptr %14, align 8, !tbaa !15
  %15 = load ptr, ptr %5, align 8, !tbaa !7
  %16 = getelementptr inbounds nuw %struct.Gia_MmFixed_t_, ptr %15, i32 0, i32 4
  store ptr null, ptr %16, align 8, !tbaa !16
  %17 = load i32, ptr %4, align 4, !tbaa !3
  %18 = sdiv i32 %17, 8
  %19 = load ptr, ptr %5, align 8, !tbaa !7
  %20 = getelementptr inbounds nuw %struct.Gia_MmFixed_t_, ptr %19, i32 0, i32 5
  store i32 %18, ptr %20, align 8, !tbaa !17
  %21 = load ptr, ptr %5, align 8, !tbaa !7
  %22 = getelementptr inbounds nuw %struct.Gia_MmFixed_t_, ptr %21, i32 0, i32 5
  %23 = load i32, ptr %22, align 8, !tbaa !17
  %24 = icmp slt i32 %23, 8
  br i1 %24, label %25, label %28

25:                                               ; preds = %2
  %26 = load ptr, ptr %5, align 8, !tbaa !7
  %27 = getelementptr inbounds nuw %struct.Gia_MmFixed_t_, ptr %26, i32 0, i32 5
  store i32 8, ptr %27, align 8, !tbaa !17
  br label %28

28:                                               ; preds = %25, %2
  %29 = load ptr, ptr %5, align 8, !tbaa !7
  %30 = getelementptr inbounds nuw %struct.Gia_MmFixed_t_, ptr %29, i32 0, i32 6
  store i32 64, ptr %30, align 4, !tbaa !18
  %31 = load ptr, ptr %5, align 8, !tbaa !7
  %32 = getelementptr inbounds nuw %struct.Gia_MmFixed_t_, ptr %31, i32 0, i32 7
  store i32 0, ptr %32, align 8, !tbaa !19
  %33 = load ptr, ptr %5, align 8, !tbaa !7
  %34 = getelementptr inbounds nuw %struct.Gia_MmFixed_t_, ptr %33, i32 0, i32 6
  %35 = load i32, ptr %34, align 4, !tbaa !18
  %36 = sext i32 %35 to i64
  %37 = mul i64 8, %36
  %38 = call noalias ptr @malloc(i64 noundef %37) #8
  %39 = load ptr, ptr %5, align 8, !tbaa !7
  %40 = getelementptr inbounds nuw %struct.Gia_MmFixed_t_, ptr %39, i32 0, i32 8
  store ptr %38, ptr %40, align 8, !tbaa !20
  %41 = load ptr, ptr %5, align 8, !tbaa !7
  %42 = getelementptr inbounds nuw %struct.Gia_MmFixed_t_, ptr %41, i32 0, i32 9
  store i32 0, ptr %42, align 8, !tbaa !21
  %43 = load ptr, ptr %5, align 8, !tbaa !7
  %44 = getelementptr inbounds nuw %struct.Gia_MmFixed_t_, ptr %43, i32 0, i32 10
  store i32 0, ptr %44, align 4, !tbaa !22
  %45 = load ptr, ptr %5, align 8, !tbaa !7
  call void @llvm.lifetime.end.p0(i64 8, ptr %5) #7
  ret ptr %45
}

; Function Attrs: nounwind uwtable
define ptr @Gia_MmStepStart(i32 noundef %0) #0 {
  %2 = alloca i32, align 4
  %3 = alloca ptr, align 8
  %4 = alloca i32, align 4
  %5 = alloca i32, align 4
  store i32 %0, ptr %2, align 4, !tbaa !3
  call void @llvm.lifetime.start.p0(i64 8, ptr %3) #7
  call void @llvm.lifetime.start.p0(i64 4, ptr %4) #7
  call void @llvm.lifetime.start.p0(i64 4, ptr %5) #7
  %6 = call noalias ptr @malloc(i64 noundef 48) #8
  store ptr %6, ptr %3, align 8, !tbaa !44
  %7 = load ptr, ptr %3, align 8, !tbaa !44
  call void @llvm.memset.p0.i64(ptr align 8 %7, i8 0, i64 48, i1 false)
  %8 = load i32, ptr %2, align 4, !tbaa !3
  %9 = load ptr, ptr %3, align 8, !tbaa !44
  %10 = getelementptr inbounds nuw %struct.Gia_MmStep_t_, ptr %9, i32 0, i32 0
  store i32 %8, ptr %10, align 8, !tbaa !46
  %11 = load ptr, ptr %3, align 8, !tbaa !44
  %12 = getelementptr inbounds nuw %struct.Gia_MmStep_t_, ptr %11, i32 0, i32 0
  %13 = load i32, ptr %12, align 8, !tbaa !46
  %14 = sext i32 %13 to i64
  %15 = mul i64 8, %14
  %16 = call noalias ptr @malloc(i64 noundef %15) #8
  %17 = load ptr, ptr %3, align 8, !tbaa !44
  %18 = getelementptr inbounds nuw %struct.Gia_MmStep_t_, ptr %17, i32 0, i32 1
  store ptr %16, ptr %18, align 8, !tbaa !49
  store i32 0, ptr %4, align 4, !tbaa !3
  br label %19

19:                                               ; preds = %35, %1
  %20 = load i32, ptr %4, align 4, !tbaa !3
  %21 = load ptr, ptr %3, align 8, !tbaa !44
  %22 = getelementptr inbounds nuw %struct.Gia_MmStep_t_, ptr %21, i32 0, i32 0
  %23 = load i32, ptr %22, align 8, !tbaa !46
  %24 = icmp slt i32 %20, %23
  br i1 %24, label %25, label %38

25:                                               ; preds = %19
  %26 = load i32, ptr %4, align 4, !tbaa !3
  %27 = shl i32 8, %26
  %28 = call ptr @Gia_MmFixedStart(i32 noundef %27, i32 noundef 8192)
  %29 = load ptr, ptr %3, align 8, !tbaa !44
  %30 = getelementptr inbounds nuw %struct.Gia_MmStep_t_, ptr %29, i32 0, i32 1
  %31 = load ptr, ptr %30, align 8, !tbaa !49
  %32 = load i32, ptr %4, align 4, !tbaa !3
  %33 = sext i32 %32 to i64
  %34 = getelementptr inbounds ptr, ptr %31, i64 %33
  store ptr %28, ptr %34, align 8, !tbaa !7
  br label %35

35:                                               ; preds = %25
  %36 = load i32, ptr %4, align 4, !tbaa !3
  %37 = add nsw i32 %36, 1
  store i32 %37, ptr %4, align 4, !tbaa !3
  br label %19, !llvm.loop !50

38:                                               ; preds = %19
  %39 = load ptr, ptr %3, align 8, !tbaa !44
  %40 = getelementptr inbounds nuw %struct.Gia_MmStep_t_, ptr %39, i32 0, i32 0
  %41 = load i32, ptr %40, align 8, !tbaa !46
  %42 = shl i32 4, %41
  %43 = load ptr, ptr %3, align 8, !tbaa !44
  %44 = getelementptr inbounds nuw %struct.Gia_MmStep_t_, ptr %43, i32 0, i32 2
  store i32 %42, ptr %44, align 8, !tbaa !51
  %45 = load ptr, ptr %3, align 8, !tbaa !44
  %46 = getelementptr inbounds nuw %struct.Gia_MmStep_t_, ptr %45, i32 0, i32 2
  %47 = load i32, ptr %46, align 8, !tbaa !51
  %48 = add nsw i32 %47, 1
  %49 = sext i32 %48 to i64
  %50 = mul i64 8, %49
  %51 = call noalias ptr @malloc(i64 noundef %50) #8
  %52 = load ptr, ptr %3, align 8, !tbaa !44
  %53 = getelementptr inbounds nuw %struct.Gia_MmStep_t_, ptr %52, i32 0, i32 3
  store ptr %51, ptr %53, align 8, !tbaa !52
  %54 = load ptr, ptr %3, align 8, !tbaa !44
  %55 = getelementptr inbounds nuw %struct.Gia_MmStep_t_, ptr %54, i32 0, i32 3
  %56 = load ptr, ptr %55, align 8, !tbaa !52
  %57 = getelementptr inbounds ptr, ptr %56, i64 0
  store ptr null, ptr %57, align 8, !tbaa !7
  store i32 1, ptr %5, align 4, !tbaa !3
  br label %58

58:                                               ; preds = %73, %38
  %59 = load i32, ptr %5, align 4, !tbaa !3
  %60 = icmp sle i32 %59, 4
  br i1 %60, label %61, label %76

61:                                               ; preds = %58
  %62 = load ptr, ptr %3, align 8, !tbaa !44
  %63 = getelementptr inbounds nuw %struct.Gia_MmStep_t_, ptr %62, i32 0, i32 1
  %64 = load ptr, ptr %63, align 8, !tbaa !49
  %65 = getelementptr inbounds ptr, ptr %64, i64 0
  %66 = load ptr, ptr %65, align 8, !tbaa !7
  %67 = load ptr, ptr %3, align 8, !tbaa !44
  %68 = getelementptr inbounds nuw %struct.Gia_MmStep_t_, ptr %67, i32 0, i32 3
  %69 = load ptr, ptr %68, align 8, !tbaa !52
  %70 = load i32, ptr %5, align 4, !tbaa !3
  %71 = sext i32 %70 to i64
  %72 = getelementptr inbounds ptr, ptr %69, i64 %71
  store ptr %66, ptr %72, align 8, !tbaa !7
  br label %73

73:                                               ; preds = %61
  %74 = load i32, ptr %5, align 4, !tbaa !3
  %75 = add nsw i32 %74, 1
  store i32 %75, ptr %5, align 4, !tbaa !3
  br label %58, !llvm.loop !53

76:                                               ; preds = %58
  store i32 0, ptr %4, align 4, !tbaa !3
  br label %77

77:                                               ; preds = %110, %76
  %78 = load i32, ptr %4, align 4, !tbaa !3
  %79 = load ptr, ptr %3, align 8, !tbaa !44
  %80 = getelementptr inbounds nuw %struct.Gia_MmStep_t_, ptr %79, i32 0, i32 0
  %81 = load i32, ptr %80, align 8, !tbaa !46
  %82 = icmp slt i32 %78, %81
  br i1 %82, label %83, label %113

83:                                               ; preds = %77
  %84 = load i32, ptr %4, align 4, !tbaa !3
  %85 = shl i32 4, %84
  %86 = add nsw i32 %85, 1
  store i32 %86, ptr %5, align 4, !tbaa !3
  br label %87

87:                                               ; preds = %106, %83
  %88 = load i32, ptr %5, align 4, !tbaa !3
  %89 = load i32, ptr %4, align 4, !tbaa !3
  %90 = shl i32 8, %89
  %91 = icmp sle i32 %88, %90
  br i1 %91, label %92, label %109

92:                                               ; preds = %87
  %93 = load ptr, ptr %3, align 8, !tbaa !44
  %94 = getelementptr inbounds nuw %struct.Gia_MmStep_t_, ptr %93, i32 0, i32 1
  %95 = load ptr, ptr %94, align 8, !tbaa !49
  %96 = load i32, ptr %4, align 4, !tbaa !3
  %97 = sext i32 %96 to i64
  %98 = getelementptr inbounds ptr, ptr %95, i64 %97
  %99 = load ptr, ptr %98, align 8, !tbaa !7
  %100 = load ptr, ptr %3, align 8, !tbaa !44
  %101 = getelementptr inbounds nuw %struct.Gia_MmStep_t_, ptr %100, i32 0, i32 3
  %102 = load ptr, ptr %101, align 8, !tbaa !52
  %103 = load i32, ptr %5, align 4, !tbaa !3
  %104 = sext i32 %103 to i64
  %105 = getelementptr inbounds ptr, ptr %102, i64 %104
  store ptr %99, ptr %105, align 8, !tbaa !7
  br label %106

106:                                              ; preds = %92
  %107 = load i32, ptr %5, align 4, !tbaa !3
  %108 = add nsw i32 %107, 1
  store i32 %108, ptr %5, align 4, !tbaa !3
  br label %87, !llvm.loop !54

109:                                              ; preds = %87
  br label %110

110:                                              ; preds = %109
  %111 = load i32, ptr %4, align 4, !tbaa !3
  %112 = add nsw i32 %111, 1
  store i32 %112, ptr %4, align 4, !tbaa !3
  br label %77, !llvm.loop !55

113:                                              ; preds = %77
  %114 = load ptr, ptr %3, align 8, !tbaa !44
  %115 = getelementptr inbounds nuw %struct.Gia_MmStep_t_, ptr %114, i32 0, i32 4
  store i32 64, ptr %115, align 8, !tbaa !56
  %116 = load ptr, ptr %3, align 8, !tbaa !44
  %117 = getelementptr inbounds nuw %struct.Gia_MmStep_t_, ptr %116, i32 0, i32 5
  store i32 0, ptr %117, align 4, !tbaa !57
  %118 = load ptr, ptr %3, align 8, !tbaa !44
  %119 = getelementptr inbounds nuw %struct.Gia_MmStep_t_, ptr %118, i32 0, i32 4
  %120 = load i32, ptr %119, align 8, !tbaa !56
  %121 = sext i32 %120 to i64
  %122 = mul i64 8, %121
  %123 = call noalias ptr @malloc(i64 noundef %122) #8
  %124 = load ptr, ptr %3, align 8, !tbaa !44
  %125 = getelementptr inbounds nuw %struct.Gia_MmStep_t_, ptr %124, i32 0, i32 6
  store ptr %123, ptr %125, align 8, !tbaa !58
  %126 = load ptr, ptr %3, align 8, !tbaa !44
  call void @llvm.lifetime.end.p0(i64 4, ptr %5) #7
  call void @llvm.lifetime.end.p0(i64 4, ptr %4) #7
  call void @llvm.lifetime.end.p0(i64 8, ptr %3) #7
  ret ptr %126
}