; Function Attrs: nofree nounwind memory(readwrite, argmem: none) uwtable
define noalias noundef ptr @Gia_MmStepStart(i32 noundef %0) local_unnamed_addr #9 {
  %calloc = tail call dereferenceable_or_null(48) ptr @calloc(i64 1, i64 48)
  store i32 %0, ptr %calloc, align 8, !tbaa !39
  %2 = sext i32 %0 to i64
  %3 = shl nsw i64 %2, 3
  %4 = tail call noalias ptr @malloc(i64 noundef %3) #14
  %5 = getelementptr inbounds nuw i8, ptr %calloc, i64 8
  store ptr %4, ptr %5, align 8, !tbaa !42
  %6 = icmp sgt i32 %0, 0
  br i1 %6, label %.lr.ph.preheader, label %._crit_edge

.lr.ph.preheader:                                 ; preds = %1
  %wide.trip.count = zext nneg i32 %0 to i64
  br label %.lr.ph

.lr.ph:                                           ; preds = %.lr.ph.preheader, %.lr.ph
  %indvars.iv = phi i64 [ 0, %.lr.ph.preheader ], [ %indvars.iv.next, %.lr.ph ]
  %7 = trunc nuw nsw i64 %indvars.iv to i32
  %8 = shl i32 8, %7
  %calloc.i = tail call dereferenceable_or_null(56) ptr @calloc(i64 1, i64 56)
  store i32 %8, ptr %calloc.i, align 8, !tbaa !3
  %9 = getelementptr inbounds nuw i8, ptr %calloc.i, i64 24
  store i32 1024, ptr %9, align 8, !tbaa !11
  %10 = getelementptr inbounds nuw i8, ptr %calloc.i, i64 28
  store i32 64, ptr %10, align 4, !tbaa !12
  %11 = tail call noalias dereferenceable_or_null(512) ptr @malloc(i64 noundef 512) #14
  %12 = getelementptr inbounds nuw i8, ptr %calloc.i, i64 40
  store ptr %11, ptr %12, align 8, !tbaa !13
  %13 = getelementptr inbounds nuw ptr, ptr %4, i64 %indvars.iv
  store ptr %calloc.i, ptr %13, align 8, !tbaa !43
  %indvars.iv.next = add nuw nsw i64 %indvars.iv, 1
  %exitcond.not = icmp eq i64 %indvars.iv.next, %wide.trip.count
  br i1 %exitcond.not, label %._crit_edge.loopexit, label %.lr.ph, !llvm.loop !45

._crit_edge.loopexit:                             ; preds = %.lr.ph
  %.pre = load ptr, ptr %4, align 8, !tbaa !43
  br label %._crit_edge

._crit_edge:                                      ; preds = %._crit_edge.loopexit, %1
  %14 = phi ptr [ %.pre, %._crit_edge.loopexit ], [ undef, %1 ]
  %15 = shl i32 4, %0
  %16 = getelementptr inbounds nuw i8, ptr %calloc, i64 16
  store i32 %15, ptr %16, align 8, !tbaa !46
  %17 = or disjoint i32 %15, 1
  %18 = sext i32 %17 to i64
  %19 = shl nsw i64 %18, 3
  %20 = tail call noalias ptr @malloc(i64 noundef %19) #14
  %21 = getelementptr inbounds nuw i8, ptr %calloc, i64 24
  store ptr %20, ptr %21, align 8, !tbaa !47
  store ptr null, ptr %20, align 8, !tbaa !43
  br label %22

.preheader:                                       ; preds = %22
  br i1 %6, label %.lr.ph47.preheader, label %._crit_edge48

.lr.ph47.preheader:                               ; preds = %.preheader
  %wide.trip.count61 = zext nneg i32 %0 to i64
  br label %.lr.ph47

22:                                               ; preds = %._crit_edge, %22
  %indvars.iv50 = phi i64 [ 1, %._crit_edge ], [ %indvars.iv.next51, %22 ]
  %23 = getelementptr inbounds nuw ptr, ptr %20, i64 %indvars.iv50
  store ptr %14, ptr %23, align 8, !tbaa !43
  %indvars.iv.next51 = add nuw nsw i64 %indvars.iv50, 1
  %exitcond53.not = icmp eq i64 %indvars.iv.next51, 5
  br i1 %exitcond53.not, label %.preheader, label %22, !llvm.loop !48

.lr.ph47:                                         ; preds = %.lr.ph47.preheader, %._crit_edge45
  %indvars.iv58 = phi i64 [ 0, %.lr.ph47.preheader ], [ %indvars.iv.next59, %._crit_edge45 ]
  %24 = trunc nuw nsw i64 %indvars.iv58 to i32
  %25 = shl i32 4, %24
  %26 = shl i32 8, %24
  %.not41.not = icmp slt i32 %25, %26
  br i1 %.not41.not, label %.lr.ph44, label %._crit_edge45

.lr.ph44:                                         ; preds = %.lr.ph47
  %27 = getelementptr inbounds nuw ptr, ptr %4, i64 %indvars.iv58
  %28 = load ptr, ptr %27, align 8, !tbaa !43
  %29 = or disjoint i32 %25, 1
  %30 = sext i32 %29 to i64
  %31 = or disjoint i32 %26, 1
  br label %32

32:                                               ; preds = %.lr.ph44, %32
  %indvars.iv54 = phi i64 [ %30, %.lr.ph44 ], [ %indvars.iv.next55, %32 ]
  %33 = getelementptr inbounds ptr, ptr %20, i64 %indvars.iv54
  store ptr %28, ptr %33, align 8, !tbaa !43
  %indvars.iv.next55 = add nsw i64 %indvars.iv54, 1
  %lftr.wideiv = trunc i64 %indvars.iv.next55 to i32
  %exitcond57.not = icmp eq i32 %31, %lftr.wideiv
  br i1 %exitcond57.not, label %._crit_edge45, label %32, !llvm.loop !49

._crit_edge45:                                    ; preds = %32, %.lr.ph47
  %indvars.iv.next59 = add nuw nsw i64 %indvars.iv58, 1
  %exitcond62.not = icmp eq i64 %indvars.iv.next59, %wide.trip.count61
  br i1 %exitcond62.not, label %._crit_edge48, label %.lr.ph47, !llvm.loop !50

._crit_edge48:                                    ; preds = %._crit_edge45, %.preheader
  %34 = getelementptr inbounds nuw i8, ptr %calloc, i64 32
  store i32 64, ptr %34, align 8, !tbaa !51
  %35 = getelementptr inbounds nuw i8, ptr %calloc, i64 36
  store i32 0, ptr %35, align 4, !tbaa !52
  %36 = tail call noalias dereferenceable_or_null(512) ptr @malloc(i64 noundef 512) #14
  %37 = getelementptr inbounds nuw i8, ptr %calloc, i64 40
  store ptr %36, ptr %37, align 8, !tbaa !53
  ret ptr %calloc
}